Certificate:
    Data:
        Version: 3 (0x2)
        Serial Number: 1 (0x1)
        Signature Algorithm: sha256WithRSAEncryption
        Issuer: C=AQ, ST=N/A, L=Delphia, O=PUCK, OU=Crypto Cops, CN=puckasaurus/name=PUCK/emailAddress=puck@example.com
        Validity
            Not Before: Mar 11 16:21:35 2014 GMT
            Not After : Mar  8 16:21:35 2024 GMT
        Subject: C=AQ, ST=N/A, L=Delphia, O=PUCK, OU=Crypto Cops, CN=puckasaurus/name=PUCK/emailAddress=puck@example.com
        Subject Public Key Info:
            Public Key Algorithm: rsaEncryption
            RSA Public Key: (512 bit)
                Modulus (512 bit):
                    00:b9:7d:2c:cd:52:85:58:94:e7:c4:6f:eb:76:b0:
                    cb:2e:65:76:ac:1f:25:b2:3f:64:43:10:85:6e:e4:
                    99:b8:43:9b:ce:79:bf:ed:60:30:0f:e5:41:8b:0d:
                    8f:80:f7:ee:72:fc:8c:1c:dc:0d:a8:0c:32:7e:43:
                    40:1c:77:99:21
                Exponent: 65537 (0x10001)
        X509v3 extensions:
            X509v3 Basic Constraints: 
                CA:FALSE
            Netscape Cert Type: 
                SSL Server
            Netscape Comment: 
                Easy-RSA Generated Server Certificate
            X509v3 Subject Key Identifier: 
                5F:A7:D0:82:43:F5:48:18:F6:D5:D2:23:F2:69:7A:9B:9B:6F:3D:5F
            X509v3 Authority Key Identifier: 
                keyid:07:0A:A6:F2:80:61:41:9D:23:0B:19:C2:C7:67:97:B1:DB:9D:AE:04
                DirName:/C=AQ/ST=N/A/L=Delphia/O=PUCK/OU=Crypto Cops/CN=puckasaurus/name=PUCK/emailAddress=puck@example.com
                serial:A3:E3:2B:71:C3:0C:25:76

            X509v3 Extended Key Usage: 
                TLS Web Server Authentication
            X509v3 Key Usage: 
                Digital Signature, Key Encipherment
    Signature Algorithm: sha256WithRSAEncryption
        3c:08:f7:97:1a:c0:c5:4b:63:ce:b7:81:15:c6:b2:90:5f:d6:
        3b:c7:bc:a5:3a:ac:a4:b0:4d:77:3a:6e:8d:97:4e:2b:32:13:
        d1:23:29:0d:b6:45:74:c9:6d:85:47:58:67:90:0c:08:f4:40:
        e9:33:c9:9c:a8:08:9b:80:b5:b8
-----BEGIN CERTIFICATE-----
MIIDjjCCAzigAwIBAgIBATANBgkqhkiG9w0BAQsFADCBmDELMAkGA1UEBhMCQVEx
DDAKBgNVBAgTA04vQTEQMA4GA1UEBxMHRGVscGhpYTENMAsGA1UEChMEUFVDSzEU
MBIGA1UECxMLQ3J5cHRvIENvcHMxFDASBgNVBAMTC3B1Y2thc2F1cnVzMQ0wCwYD
VQQpEwRQVUNLMR8wHQYJKoZIhvcNAQkBFhBwdWNrQGV4YW1wbGUuY29tMB4XDTE0
MDMxMTE2MjEzNVoXDTI0MDMwODE2MjEzNVowgZgxCzAJBgNVBAYTAkFRMQwwCgYD
VQQIEwNOL0ExEDAOBgNVBAcTB0RlbHBoaWExDTALBgNVBAoTBFBVQ0sxFDASBgNV
BAsTC0NyeXB0byBDb3BzMRQwEgYDVQQDEwtwdWNrYXNhdXJ1czENMAsGA1UEKRME
UFVDSzEfMB0GCSqGSIb3DQEJARYQcHVja0BleGFtcGxlLmNvbTBcMA0GCSqGSIb3
DQEBAQUAA0sAMEgCQQC5fSzNUoVYlOfEb+t2sMsuZXasHyWyP2RDEIVu5Jm4Q5vO
eb/tYDAP5UGLDY+A9+5y/Iwc3A2oDDJ+Q0Acd5khAgMBAAGjggFpMIIBZTAJBgNV
HRMEAjAAMBEGCWCGSAGG+EIBAQQEAwIGQDA0BglghkgBhvhCAQ0EJxYlRWFzeS1S
U0EgR2VuZXJhdGVkIFNlcnZlciBDZXJ0aWZpY2F0ZTAdBgNVHQ4EFgQUX6fQgkP1
SBj21dIj8ml6m5tvPV8wgc0GA1UdIwSBxTCBwoAUBwqm8oBhQZ0jCxnCx2eXsdud
rgShgZ6kgZswgZgxCzAJBgNVBAYTAkFRMQwwCgYDVQQIEwNOL0ExEDAOBgNVBAcT
B0RlbHBoaWExDTALBgNVBAoTBFBVQ0sxFDASBgNVBAsTC0NyeXB0byBDb3BzMRQw
EgYDVQQDEwtwdWNrYXNhdXJ1czENMAsGA1UEKRMEUFVDSzEfMB0GCSqGSIb3DQEJ
ARYQcHVja0BleGFtcGxlLmNvbYIJAKPjK3HDDCV2MBMGA1UdJQQMMAoGCCsGAQUF
BwMBMAsGA1UdDwQEAwIFoDANBgkqhkiG9w0BAQsFAANBADwI95cawMVLY863gRXG
spBf1jvHvKU6rKSwTXc6bo2XTisyE9EjKQ22RXTJbYVHWGeQDAj0QOkzyZyoCJuA
tbg=
-----END CERTIFICATE-----
