Certificate:
    Data:
        Version: 3 (0x2)
        Serial Number: 1 (0x1)
        Signature Algorithm: sha256WithRSAEncryption
        Issuer: C=AQ, ST=N/A, L=Delphia, O=PUCK, OU=Crypto Cops, CN=puckasaurus/name=PUCK/emailAddress=puck@example.com
        Validity
            Not Before: Mar 11 16:28:48 2014 GMT
            Not After : Mar  8 16:28:48 2024 GMT
        Subject: C=AQ, ST=N/A, L=Delphia, O=PUCK, OU=Crypto Cops, CN=puckasaurus/name=PUCK/emailAddress=puck@example.com
        Subject Public Key Info:
            Public Key Algorithm: rsaEncryption
            RSA Public Key: (512 bit)
                Modulus (512 bit):
                    00:c9:4b:87:e4:d7:0b:7c:0d:29:db:35:18:44:4f:
                    89:d1:e7:e2:dd:bb:96:cd:6d:8a:b9:f1:18:d1:e4:
                    2c:29:76:eb:25:41:85:ba:01:50:a0:43:b0:c2:a6:
                    82:ea:7a:c9:62:45:ce:7a:0a:32:c0:60:98:39:65:
                    3a:48:2f:55:9b
                Exponent: 65537 (0x10001)
        X509v3 extensions:
            X509v3 Basic Constraints: 
                CA:FALSE
            Netscape Cert Type: 
                SSL Server
            Netscape Comment: 
                Easy-RSA Generated Server Certificate
            X509v3 Subject Key Identifier: 
                BF:F5:32:A0:8E:07:AD:1B:B6:56:DB:8A:BB:B3:F8:85:03:BD:26:47
            X509v3 Authority Key Identifier: 
                keyid:B3:AA:60:B4:F3:39:52:FC:52:A7:DF:5F:D3:7E:2C:8C:2F:89:F4:8D
                DirName:/C=AQ/ST=N/A/L=Delphia/O=PUCK/OU=Crypto Cops/CN=puckasaurus/name=PUCK/emailAddress=puck@example.com
                serial:C3:A1:B8:93:E9:67:50:70

            X509v3 Extended Key Usage: 
                TLS Web Server Authentication
            X509v3 Key Usage: 
                Digital Signature, Key Encipherment
    Signature Algorithm: sha256WithRSAEncryption
        a4:5a:0c:d1:a8:8c:b4:27:a5:cc:47:09:a1:bb:a6:2a:d9:a0:
        e9:b0:60:bf:55:63:6b:91:8f:c0:63:e7:94:53:3a:38:48:84:
        a9:b9:44:42:4c:ac:b4:7f:5d:c0:fa:de:05:b0:91:f1:eb:02:
        f3:c9:5a:35:c9:8f:32:1a:15:35
-----BEGIN CERTIFICATE-----
MIIDjjCCAzigAwIBAgIBATANBgkqhkiG9w0BAQsFADCBmDELMAkGA1UEBhMCQVEx
DDAKBgNVBAgTA04vQTEQMA4GA1UEBxMHRGVscGhpYTENMAsGA1UEChMEUFVDSzEU
MBIGA1UECxMLQ3J5cHRvIENvcHMxFDASBgNVBAMTC3B1Y2thc2F1cnVzMQ0wCwYD
VQQpEwRQVUNLMR8wHQYJKoZIhvcNAQkBFhBwdWNrQGV4YW1wbGUuY29tMB4XDTE0
MDMxMTE2Mjg0OFoXDTI0MDMwODE2Mjg0OFowgZgxCzAJBgNVBAYTAkFRMQwwCgYD
VQQIEwNOL0ExEDAOBgNVBAcTB0RlbHBoaWExDTALBgNVBAoTBFBVQ0sxFDASBgNV
BAsTC0NyeXB0byBDb3BzMRQwEgYDVQQDEwtwdWNrYXNhdXJ1czENMAsGA1UEKRME
UFVDSzEfMB0GCSqGSIb3DQEJARYQcHVja0BleGFtcGxlLmNvbTBcMA0GCSqGSIb3
DQEBAQUAA0sAMEgCQQDJS4fk1wt8DSnbNRhET4nR5+Ldu5bNbYq58RjR5Cwpdusl
QYW6AVCgQ7DCpoLqesliRc56CjLAYJg5ZTpIL1WbAgMBAAGjggFpMIIBZTAJBgNV
HRMEAjAAMBEGCWCGSAGG+EIBAQQEAwIGQDA0BglghkgBhvhCAQ0EJxYlRWFzeS1S
U0EgR2VuZXJhdGVkIFNlcnZlciBDZXJ0aWZpY2F0ZTAdBgNVHQ4EFgQUv/UyoI4H
rRu2VtuKu7P4hQO9Jkcwgc0GA1UdIwSBxTCBwoAUs6pgtPM5UvxSp99f034sjC+J
9I2hgZ6kgZswgZgxCzAJBgNVBAYTAkFRMQwwCgYDVQQIEwNOL0ExEDAOBgNVBAcT
B0RlbHBoaWExDTALBgNVBAoTBFBVQ0sxFDASBgNVBAsTC0NyeXB0byBDb3BzMRQw
EgYDVQQDEwtwdWNrYXNhdXJ1czENMAsGA1UEKRMEUFVDSzEfMB0GCSqGSIb3DQEJ
ARYQcHVja0BleGFtcGxlLmNvbYIJAMOhuJPpZ1BwMBMGA1UdJQQMMAoGCCsGAQUF
BwMBMAsGA1UdDwQEAwIFoDANBgkqhkiG9w0BAQsFAANBAKRaDNGojLQnpcxHCaG7
pirZoOmwYL9VY2uRj8Bj55RTOjhIhKm5REJMrLR/XcD63gWwkfHrAvPJWjXJjzIa
FTU=
-----END CERTIFICATE-----
